; Function Attrs: nounwind uwtable
define void @dt_control_progress_attach_job(ptr noundef %0, ptr noundef %1, ptr noundef %2) local_unnamed_addr #0 {
  %4 = getelementptr inbounds nuw i8, ptr %1, i64 24
  %5 = tail call i32 @pthread_mutex_lock(ptr noundef nonnull %4) #6
  %6 = getelementptr inbounds nuw i8, ptr %1, i64 72
  store ptr @dt_control_progress_cancel_callback, ptr %6, align 8, !tbaa !86
  %7 = getelementptr inbounds nuw i8, ptr %1, i64 80
  store ptr %2, ptr %7, align 8, !tbaa !87
  %8 = tail call i32 @pthread_mutex_unlock(ptr noundef nonnull %4) #6
  %9 = getelementptr inbounds nuw i8, ptr %0, i64 10136
  %10 = tail call i32 @pthread_mutex_lock(ptr noundef nonnull %9) #6
  %11 = getelementptr inbounds nuw i8, ptr %0, i64 10176
  %12 = load ptr, ptr %11, align 8, !tbaa !78
  %.not.i = icmp eq ptr %12, null
  br i1 %.not.i, label %dt_control_progress_make_cancellable.exit, label %13

13:                                               ; preds = %3
  %14 = getelementptr inbounds nuw i8, ptr %0, i64 10200
  %15 = load ptr, ptr %14, align 8, !tbaa !88
  %16 = getelementptr inbounds nuw i8, ptr %1, i64 64
  %17 = load ptr, ptr %16, align 8, !tbaa !80
  tail call void %15(ptr noundef nonnull %12, ptr noundef %17, ptr noundef nonnull %1) #6
  br label %dt_control_progress_make_cancellable.exit

dt_control_progress_make_cancellable.exit:        ; preds = %3, %13
  %18 = tail call i32 @pthread_mutex_unlock(ptr noundef nonnull %9) #6
  ret void
}